target datalayout = "e-m:e-p270:32:32-p271:32:32-p272:64:64-i64:64-i128:128-f80:128-n8:16:32:64-S128"
target triple = "x86_64-pc-linux-gnu"

%struct.jsmn_parser = type { i32, i32, i32 }

; Function Attrs: null_pointer_is_valid sspstrong uwtable
define zeroext i1 @json_validate(ptr noundef %0, i64 noundef %1) #0 {
  %3 = alloca i1, align 1
  %4 = alloca ptr, align 8
  %5 = alloca i64, align 8
  %6 = alloca i8, align 1
  %7 = alloca i32, align 4
  %8 = alloca ptr, align 8
  %9 = alloca %struct.jsmn_parser, align 4
  %10 = alloca i32, align 4
  %11 = alloca i32, align 4
  %12 = alloca i64, align 8
  %13 = alloca i64, align 8
  %14 = alloca ptr, align 8
  %15 = alloca ptr, align 8
  store ptr %0, ptr %4, align 8
  store i64 %1, ptr %5, align 8
  call void @llvm.lifetime.start.p0(i64 1, ptr %6) #9
  store i8 1, ptr %6, align 1
  call void @llvm.lifetime.start.p0(i64 4, ptr %7) #9
  store i32 1024, ptr %7, align 4
  call void @llvm.lifetime.start.p0(i64 8, ptr %8) #9
  call void @llvm.lifetime.start.p0(i64 12, ptr %9) #9
  call void @llvm.lifetime.start.p0(i64 4, ptr %10) #9
  %16 = load i64, ptr %5, align 8
  %17 = icmp eq i64 %16, 0
  br i1 %17, label %18, label %22

18:                                               ; preds = %2
  br label %19

19:                                               ; preds = %18
  br label %20

20:                                               ; preds = %19
  br label %21

21:                                               ; preds = %20
  store i1 false, ptr %3, align 1
  store i32 1, ptr %11, align 4
  br label %98

22:                                               ; preds = %2
  %23 = load ptr, ptr %4, align 8
  %24 = getelementptr i8, ptr %23, i64 0
  %25 = load i8, ptr %24, align 1
  %26 = zext i8 %25 to i32
  %27 = icmp eq i32 %26, 0
  br i1 %27, label %28, label %32

28:                                               ; preds = %22
  br label %29

29:                                               ; preds = %28
  br label %30

30:                                               ; preds = %29
  br label %31

31:                                               ; preds = %30
  store i1 false, ptr %3, align 1
  store i32 1, ptr %11, align 4
  br label %98

32:                                               ; preds = %22
  call void @llvm.lifetime.start.p0(i64 8, ptr %12) #9
  %33 = load i32, ptr %7, align 4
  %34 = zext i32 %33 to i64
  store i64 %34, ptr %12, align 8
  call void @llvm.lifetime.start.p0(i64 8, ptr %13) #9
  store i64 16, ptr %13, align 8
  call void @llvm.lifetime.start.p0(i64 8, ptr %14) #9
  %35 = load i64, ptr %13, align 8
  %36 = icmp eq i64 %35, 1
  br i1 %36, label %37, label %40

37:                                               ; preds = %32
  %38 = load i64, ptr %12, align 8
  %39 = call noalias ptr @g_malloc0(i64 noundef %38) #10
  store ptr %39, ptr %14, align 8
  br label %61

40:                                               ; preds = %32
  %41 = load i64, ptr %12, align 8
  %42 = call i1 @llvm.is.constant.i64(i64 %41)
  br i1 %42, label %43, label %56

43:                                               ; preds = %40
  %44 = load i64, ptr %13, align 8
  %45 = icmp eq i64 %44, 0
  br i1 %45, label %51, label %46

46:                                               ; preds = %43
  %47 = load i64, ptr %12, align 8
  %48 = load i64, ptr %13, align 8
  %49 = udiv i64 -1, %48
  %50 = icmp ule i64 %47, %49
  br i1 %50, label %51, label %56

51:                                               ; preds = %46, %43
  %52 = load i64, ptr %12, align 8
  %53 = load i64, ptr %13, align 8
  %54 = mul i64 %52, %53
  %55 = call noalias ptr @g_malloc0(i64 noundef %54) #10
  store ptr %55, ptr %14, align 8
  br label %60

56:                                               ; preds = %46, %40
  %57 = load i64, ptr %12, align 8
  %58 = load i64, ptr %13, align 8
  %59 = call noalias ptr @g_malloc0_n(i64 noundef %57, i64 noundef %58) #11
  store ptr %59, ptr %14, align 8
  br label %60

60:                                               ; preds = %56, %51
  br label %61

61:                                               ; preds = %60, %37
  %62 = load ptr, ptr %14, align 8
  store ptr %62, ptr %15, align 8
  call void @llvm.lifetime.end.p0(i64 8, ptr %14) #9
  call void @llvm.lifetime.end.p0(i64 8, ptr %13) #9
  call void @llvm.lifetime.end.p0(i64 8, ptr %12) #9
  %63 = load ptr, ptr %15, align 8
  store ptr %63, ptr %8, align 8
  %64 = load ptr, ptr %8, align 8
  %65 = icmp ne ptr %64, null
  br i1 %65, label %67, label %66

66:                                               ; preds = %61
  store i1 false, ptr %3, align 1
  store i32 1, ptr %11, align 4
  br label %98

67:                                               ; preds = %61
  call void @jsmn_init(ptr noundef %9)
  %68 = load ptr, ptr %4, align 8
  %69 = load i64, ptr %5, align 8
  %70 = load ptr, ptr %8, align 8
  %71 = load i32, ptr %7, align 4
  %72 = call i32 @jsmn_parse(ptr noundef %9, ptr noundef %68, i64 noundef %69, ptr noundef %70, i32 noundef %71)
  store i32 %72, ptr %10, align 4
  %73 = load i32, ptr %10, align 4
  %74 = icmp slt i32 %73, 0
  br i1 %74, label %75, label %94

75:                                               ; preds = %67
  %76 = load i32, ptr %10, align 4
  switch i32 %76, label %89 [
    i32 -1, label %77
    i32 -2, label %81
    i32 -3, label %85
  ]

77:                                               ; preds = %75
  br label %78

78:                                               ; preds = %77
  br label %79

79:                                               ; preds = %78
  br label %80

80:                                               ; preds = %79
  br label %93

81:                                               ; preds = %75
  br label %82

82:                                               ; preds = %81
  br label %83

83:                                               ; preds = %82
  br label %84

84:                                               ; preds = %83
  br label %93

85:                                               ; preds = %75
  br label %86

86:                                               ; preds = %85
  br label %87

87:                                               ; preds = %86
  br label %88

88:                                               ; preds = %87
  br label %93

89:                                               ; preds = %75
  br label %90

90:                                               ; preds = %89
  br label %91

91:                                               ; preds = %90
  br label %92

92:                                               ; preds = %91
  br label %93

93:                                               ; preds = %92, %88, %84, %80
  store i8 0, ptr %6, align 1
  br label %94

94:                                               ; preds = %93, %67
  %95 = load ptr, ptr %8, align 8
  call void @g_free(ptr noundef %95)
  %96 = load i8, ptr %6, align 1, !range !6, !noundef !7
  %97 = trunc i8 %96 to i1
  store i1 %97, ptr %3, align 1
  store i32 1, ptr %11, align 4
  br label %98

98:                                               ; preds = %94, %66, %31, %21
  call void @llvm.lifetime.end.p0(i64 4, ptr %10) #9
  call void @llvm.lifetime.end.p0(i64 12, ptr %9) #9
  call void @llvm.lifetime.end.p0(i64 8, ptr %8) #9
  call void @llvm.lifetime.end.p0(i64 4, ptr %7) #9
  call void @llvm.lifetime.end.p0(i64 1, ptr %6) #9
  %99 = load i1, ptr %3, align 1
  ret i1 %99
}