; Function Attrs: null_pointer_is_valid sspstrong uwtable
define zeroext i1 @json_validate(ptr noundef %0, i64 noundef %1) local_unnamed_addr #0 {
  %3 = alloca %struct.jsmn_parser, align 4
  call void @llvm.lifetime.start.p0(i64 12, ptr nonnull %3) #10
  %4 = icmp eq i64 %1, 0
  br i1 %4, label %13, label %5

5:                                                ; preds = %2
  %6 = load i8, ptr %0, align 1
  %7 = icmp eq i8 %6, 0
  br i1 %7, label %13, label %8

8:                                                ; preds = %5
  %9 = tail call noalias dereferenceable_or_null(16384) ptr @g_malloc0(i64 noundef 16384) #11
  %.not = icmp eq ptr %9, null
  br i1 %.not, label %13, label %10

10:                                               ; preds = %8
  call void @jsmn_init(ptr noundef nonnull %3)
  %11 = call i32 @jsmn_parse(ptr noundef nonnull %3, ptr noundef %0, i64 noundef %1, ptr noundef nonnull %9, i32 noundef 1024)
  %12 = icmp sgt i32 %11, -1
  call void @g_free(ptr noundef nonnull %9)
  br label %13

13:                                               ; preds = %8, %5, %2, %10
  %.0 = phi i1 [ %12, %10 ], [ false, %2 ], [ false, %5 ], [ false, %8 ]
  call void @llvm.lifetime.end.p0(i64 12, ptr nonnull %3) #10
  ret i1 %.0
}